; ModuleID = '23/866.c'
source_filename = "23/866.c"
target datalayout = "e-m:e-p270:32:32-p271:32:32-p272:64:64-i64:64-f80:128-n8:16:32:64-S128"
target triple = "x86_64-pc-linux-gnu"

@.str = private unnamed_addr constant [3 x i8] c"%s\00", align 1
@.str.1 = private unnamed_addr constant [3 x i8] c"%c\00", align 1
@.str.2 = private unnamed_addr constant [2 x i8] c" \00", align 1

; Function Attrs: noinline nounwind uwtable
define dso_local void @main() #0 {
  %1 = alloca i32, align 4
  %2 = alloca i32, align 4
  %3 = alloca i32, align 4
  %4 = alloca i32, align 4
  %5 = alloca i32, align 4
  %6 = alloca [111 x i8], align 16
  %7 = alloca i8*, align 8
  store i32 0, i32* %5, align 4
  %8 = getelementptr inbounds [111 x i8], [111 x i8]* %6, i64 0, i64 0
  %9 = call i32 (i8*, ...) bitcast (i32 (...)* @gets to i32 (i8*, ...)*)(i8* %8)
  %10 = getelementptr inbounds [111 x i8], [111 x i8]* %6, i64 0, i64 0
  %11 = call i64 @strlen(i8* %10) #3
  %12 = trunc i64 %11 to i32
  store i32 %12, i32* %3, align 4
  store i32 0, i32* %1, align 4
  br label %13

13:                                               ; preds = %32, %0
  %14 = load i32, i32* %1, align 4
  %15 = sext i32 %14 to i64
  %16 = getelementptr inbounds [111 x i8], [111 x i8]* %6, i64 0, i64 %15
  %17 = load i8, i8* %16, align 1
  %18 = sext i8 %17 to i32
  %19 = icmp ne i32 %18, 0
  br i1 %19, label %20, label %27

20:                                               ; preds = %13
  %21 = load i32, i32* %1, align 4
  %22 = sext i32 %21 to i64
  %23 = getelementptr inbounds [111 x i8], [111 x i8]* %6, i64 0, i64 %22
  %24 = load i8, i8* %23, align 1
  %25 = sext i8 %24 to i32
  %26 = icmp ne i32 %25, 32
  br label %27

27:                                               ; preds = %20, %13
  %28 = phi i1 [ false, %13 ], [ %26, %20 ]
  br i1 %28, label %29, label %35

29:                                               ; preds = %27
  %30 = load i32, i32* %5, align 4
  %31 = add nsw i32 %30, 1
  store i32 %31, i32* %5, align 4
  br label %32

32:                                               ; preds = %29
  %33 = load i32, i32* %1, align 4
  %34 = add nsw i32 %33, 1
  store i32 %34, i32* %1, align 4
  br label %13

35:                                               ; preds = %27
  %36 = load i32, i32* %5, align 4
  %37 = load i32, i32* %3, align 4
  %38 = icmp eq i32 %36, %37
  br i1 %38, label %39, label %42

39:                                               ; preds = %35
  %40 = getelementptr inbounds [111 x i8], [111 x i8]* %6, i64 0, i64 0
  %41 = call i32 (i8*, ...) @printf(i8* getelementptr inbounds ([3 x i8], [3 x i8]* @.str, i64 0, i64 0), i8* %40)
  br label %111

42:                                               ; preds = %35
  %43 = getelementptr inbounds [111 x i8], [111 x i8]* %6, i64 0, i64 0
  %44 = load i32, i32* %3, align 4
  %45 = sext i32 %44 to i64
  %46 = getelementptr inbounds i8, i8* %43, i64 %45
  %47 = ptrtoint i8* %46 to i32
  store i32 %47, i32* %4, align 4
  %48 = getelementptr inbounds [111 x i8], [111 x i8]* %6, i64 0, i64 0
  %49 = load i32, i32* %3, align 4
  %50 = sext i32 %49 to i64
  %51 = getelementptr inbounds i8, i8* %48, i64 %50
  store i8* %51, i8** %7, align 8
  br label %52

52:                                               ; preds = %92, %42
  %53 = load i8*, i8** %7, align 8
  %54 = getelementptr inbounds [111 x i8], [111 x i8]* %6, i64 0, i64 0
  %55 = load i32, i32* %5, align 4
  %56 = sext i32 %55 to i64
  %57 = getelementptr inbounds i8, i8* %54, i64 %56
  %58 = icmp uge i8* %53, %57
  br i1 %58, label %59, label %95

59:                                               ; preds = %52
  %60 = load i8*, i8** %7, align 8
  %61 = load i8, i8* %60, align 1
  %62 = sext i8 %61 to i32
  %63 = icmp eq i32 %62, 32
  br i1 %63, label %64, label %91

64:                                               ; preds = %59
  %65 = load i8*, i8** %7, align 8
  %66 = ptrtoint i8* %65 to i32
  store i32 %66, i32* %2, align 4
  %67 = load i32, i32* %2, align 4
  %68 = add nsw i32 %67, 1
  %69 = sext i32 %68 to i64
  %70 = inttoptr i64 %69 to i8*
  store i8* %70, i8** %7, align 8
  br label %71

71:                                               ; preds = %82, %64
  %72 = load i8*, i8** %7, align 8
  %73 = load i32, i32* %4, align 4
  %74 = sext i32 %73 to i64
  %75 = inttoptr i64 %74 to i8*
  %76 = icmp ult i8* %72, %75
  br i1 %76, label %77, label %85

77:                                               ; preds = %71
  %78 = load i8*, i8** %7, align 8
  %79 = load i8, i8* %78, align 1
  %80 = sext i8 %79 to i32
  %81 = call i32 (i8*, ...) @printf(i8* getelementptr inbounds ([3 x i8], [3 x i8]* @.str.1, i64 0, i64 0), i32 %80)
  br label %82

82:                                               ; preds = %77
  %83 = load i8*, i8** %7, align 8
  %84 = getelementptr inbounds i8, i8* %83, i32 1
  store i8* %84, i8** %7, align 8
  br label %71

85:                                               ; preds = %71
  %86 = call i32 (i8*, ...) @printf(i8* getelementptr inbounds ([2 x i8], [2 x i8]* @.str.2, i64 0, i64 0))
  %87 = load i32, i32* %2, align 4
  store i32 %87, i32* %4, align 4
  %88 = load i32, i32* %2, align 4
  %89 = sext i32 %88 to i64
  %90 = inttoptr i64 %89 to i8*
  store i8* %90, i8** %7, align 8
  br label %91

91:                                               ; preds = %85, %59
  br label %92

92:                                               ; preds = %91
  %93 = load i8*, i8** %7, align 8
  %94 = getelementptr inbounds i8, i8* %93, i32 -1
  store i8* %94, i8** %7, align 8
  br label %52

95:                                               ; preds = %52
  %96 = getelementptr inbounds [111 x i8], [111 x i8]* %6, i64 0, i64 0
  store i8* %96, i8** %7, align 8
  store i32 0, i32* %1, align 4
  br label %97

97:                                               ; preds = %107, %95
  %98 = load i32, i32* %1, align 4
  %99 = load i32, i32* %5, align 4
  %100 = icmp slt i32 %98, %99
  br i1 %100, label %101, label %110

101:                                              ; preds = %97
  %102 = load i8*, i8** %7, align 8
  %103 = getelementptr inbounds i8, i8* %102, i32 1
  store i8* %103, i8** %7, align 8
  %104 = load i8, i8* %102, align 1
  %105 = sext i8 %104 to i32
  %106 = call i32 (i8*, ...) @printf(i8* getelementptr inbounds ([3 x i8], [3 x i8]* @.str.1, i64 0, i64 0), i32 %105)
  br label %107

107:                                              ; preds = %101
  %108 = load i32, i32* %1, align 4
  %109 = add nsw i32 %108, 1
  store i32 %109, i32* %1, align 4
  br label %97

110:                                              ; preds = %97
  br label %111

111:                                              ; preds = %110, %39
  ret void
}

declare dso_local i32 @gets(...) #1

; Function Attrs: nounwind readonly
declare dso_local i64 @strlen(i8*) #2

declare dso_local i32 @printf(i8*, ...) #1


!llvm.module.flags = !{!0}
!llvm.ident = !{!1}

!0 = !{i32 1, !"wchar_size", i32 4}
!1 = !{!"clang version 10.0.0-4ubuntu1 "}
